; Function Attrs: nounwind uwtable
define void @Abc_CutFactor_rec_1(ptr noundef %0, ptr noundef captures(none) %1) local_unnamed_addr #0 {
  %3 = getelementptr inbounds nuw i8, ptr %0, i64 20
  %4 = load i32, ptr %3, align 4
  %5 = and i32 %4, 16
  %.not23 = icmp eq i32 %5, 0
  br i1 %.not23, label %.lr.ph, label %.loopexit

.lr.ph:                                           ; preds = %2, %tailrecurse
  %6 = phi i32 [ %61, %tailrecurse ], [ %4, %2 ]
  %.tr24 = phi ptr [ %59, %tailrecurse ], [ %0, %2 ]
  %7 = and i32 %6, 15
  switch i32 %7, label %8 [
    i32 5, label %13
    i32 2, label %13
  ]

8:                                                ; preds = %.lr.ph
  %9 = getelementptr i8, ptr %.tr24, i64 44
  %.val = load i32, ptr %9, align 4, !tbaa !51
  %10 = icmp sgt i32 %.val, 1
  br i1 %10, label %11, label %tailrecurse

11:                                               ; preds = %8
  %12 = tail call i32 @Abc_NodeIsMuxControlType(ptr noundef nonnull %.tr24) #22
  %.not12 = icmp eq i32 %12, 0
  br i1 %.not12, label %13, label %tailrecurse

13:                                               ; preds = %.lr.ph, %.lr.ph, %11
  %14 = getelementptr inbounds nuw i8, ptr %.tr24, i64 20
  %15 = getelementptr inbounds nuw i8, ptr %1, i64 4
  %16 = load i32, ptr %15, align 4, !tbaa !38
  %17 = load i32, ptr %1, align 8, !tbaa !68
  %18 = icmp eq i32 %16, %17
  br i1 %18, label %19, label %.Vec_PtrGrow.exit11_crit_edge.i

.Vec_PtrGrow.exit11_crit_edge.i:                  ; preds = %13
  %.phi.trans.insert.i = getelementptr inbounds nuw i8, ptr %1, i64 8
  %.pre.i = load ptr, ptr %.phi.trans.insert.i, align 8, !tbaa !46
  br label %Vec_PtrPush.exit

19:                                               ; preds = %13
  %20 = icmp slt i32 %16, 16
  br i1 %20, label %21, label %29

21:                                               ; preds = %19
  %22 = getelementptr inbounds nuw i8, ptr %1, i64 8
  %23 = load ptr, ptr %22, align 8, !tbaa !46
  %.not9.i.i = icmp eq ptr %23, null
  br i1 %.not9.i.i, label %26, label %24

24:                                               ; preds = %21
  %25 = tail call dereferenceable_or_null(128) ptr @realloc(ptr noundef nonnull %23, i64 noundef 128) #24
  br label %Vec_PtrGrow.exit.i

26:                                               ; preds = %21
  %27 = tail call noalias dereferenceable_or_null(128) ptr @malloc(i64 noundef 128) #23
  br label %Vec_PtrGrow.exit.i

Vec_PtrGrow.exit.i:                               ; preds = %26, %24
  %28 = phi ptr [ %25, %24 ], [ %27, %26 ]
  store ptr %28, ptr %22, align 8, !tbaa !46
  store i32 16, ptr %1, align 8, !tbaa !68
  br label %Vec_PtrPush.exit

29:                                               ; preds = %19
  %30 = shl nuw nsw i32 %16, 1
  %31 = getelementptr inbounds nuw i8, ptr %1, i64 8
  %32 = load ptr, ptr %31, align 8, !tbaa !46
  %.not9.i10.i = icmp eq ptr %32, null
  %33 = zext nneg i32 %30 to i64
  %34 = shl nuw nsw i64 %33, 3
  br i1 %.not9.i10.i, label %37, label %35

35:                                               ; preds = %29
  %36 = tail call ptr @realloc(ptr noundef nonnull %32, i64 noundef %34) #24
  br label %39

37:                                               ; preds = %29
  %38 = tail call noalias ptr @malloc(i64 noundef %34) #23
  br label %39

39:                                               ; preds = %37, %35
  %40 = phi ptr [ %36, %35 ], [ %38, %37 ]
  store ptr %40, ptr %31, align 8, !tbaa !46
  store i32 %30, ptr %1, align 8, !tbaa !68
  br label %Vec_PtrPush.exit

Vec_PtrPush.exit:                                 ; preds = %.Vec_PtrGrow.exit11_crit_edge.i, %Vec_PtrGrow.exit.i, %39
  %41 = phi ptr [ %.pre.i, %.Vec_PtrGrow.exit11_crit_edge.i ], [ %40, %39 ], [ %28, %Vec_PtrGrow.exit.i ]
  %42 = load i32, ptr %15, align 4, !tbaa !38
  %43 = add nsw i32 %42, 1
  store i32 %43, ptr %15, align 4, !tbaa !38
  %44 = sext i32 %42 to i64
  %45 = getelementptr inbounds ptr, ptr %41, i64 %44
  store ptr %.tr24, ptr %45, align 8, !tbaa !47
  %46 = load i32, ptr %14, align 4
  %47 = or i32 %46, 16
  store i32 %47, ptr %14, align 4
  br label %.loopexit

tailrecurse:                                      ; preds = %11, %8
  %.val13 = load ptr, ptr %.tr24, align 8, !tbaa !70
  %48 = getelementptr i8, ptr %.tr24, i64 32
  %.val14 = load ptr, ptr %48, align 8, !tbaa !71
  %49 = getelementptr i8, ptr %.val13, i64 32
  %.val13.val = load ptr, ptr %49, align 8, !tbaa !37
  %.val14.val = load i32, ptr %.val14, align 4, !tbaa !29
  %50 = getelementptr i8, ptr %.val13.val, i64 8
  %.val13.val.val = load ptr, ptr %50, align 8, !tbaa !46
  %51 = sext i32 %.val14.val to i64
  %52 = getelementptr inbounds ptr, ptr %.val13.val.val, i64 %51
  %53 = load ptr, ptr %52, align 8, !tbaa !47
  tail call void @Abc_CutFactor_rec_1(ptr noundef %53, ptr noundef %1)
  %.val15 = load ptr, ptr %.tr24, align 8, !tbaa !70
  %.val16 = load ptr, ptr %48, align 8, !tbaa !71
  %54 = getelementptr i8, ptr %.val15, i64 32
  %.val15.val = load ptr, ptr %54, align 8, !tbaa !37
  %55 = getelementptr i8, ptr %.val16, i64 4
  %.val16.val = load i32, ptr %55, align 4, !tbaa !29
  %56 = getelementptr i8, ptr %.val15.val, i64 8
  %.val15.val.val = load ptr, ptr %56, align 8, !tbaa !46
  %57 = sext i32 %.val16.val to i64
  %58 = getelementptr inbounds ptr, ptr %.val15.val.val, i64 %57
  %59 = load ptr, ptr %58, align 8, !tbaa !47
  %60 = getelementptr inbounds nuw i8, ptr %59, i64 20
  %61 = load i32, ptr %60, align 4
  %62 = and i32 %61, 16
  %.not = icmp eq i32 %62, 0
  br i1 %.not, label %.lr.ph, label %.loopexit

.loopexit:                                        ; preds = %tailrecurse, %2, %Vec_PtrPush.exit
  ret void
}